target datalayout = "e-m:e-p270:32:32-p271:32:32-p272:64:64-i64:64-i128:128-f80:128-n8:16:32:64-S128"
target triple = "x86_64-unknown-linux-gnu"

%struct.Node = type { i32, ptr, ptr, ptr, ptr, ptr, ptr, ptr, ptr, ptr, ptr, ptr, ptr, ptr, ptr, ptr, ptr, i8, ptr, ptr, ptr, ptr, ptr, ptr, i64, i64, ptr, ptr, ptr, ptr, ptr, ptr, ptr, i64, x86_fp80 }
%struct.Obj = type { ptr, ptr, ptr, ptr, i8, i32, i32, i8, i8, i8, i8, i8, ptr, ptr, i8, ptr, ptr, ptr, ptr, ptr, i32, i8, i8, %struct.StringArray }
%struct.StringArray = type { ptr, i32, i32 }
%struct.Member = type { ptr, ptr, ptr, ptr, i32, i32, i32, i8, i32, i32 }

@.str = private unnamed_addr constant [28 x i8] c"not a compile-time constant\00", align 1
@.str.1 = private unnamed_addr constant [20 x i8] c"invalid initializer\00", align 1

; Function Attrs: nounwind uwtable
define internal i64 @eval_rval(ptr noundef %node, ptr noundef %label) #0 {
entry:
  %retval = alloca i64, align 8
  %node.addr = alloca ptr, align 8
  %label.addr = alloca ptr, align 8
  store ptr %node, ptr %node.addr, align 8
  store ptr %label, ptr %label.addr, align 8
  %0 = load ptr, ptr %node.addr, align 8
  %kind = getelementptr inbounds %struct.Node, ptr %0, i32 0, i32 0
  %1 = load i32, ptr %kind, align 16
  switch i32 %1, label %sw.epilog [
    i32 40, label %sw.bb
    i32 21, label %sw.bb2
    i32 19, label %sw.bb3
  ]

sw.bb:                                            ; preds = %entry
  %2 = load ptr, ptr %node.addr, align 8
  %var = getelementptr inbounds %struct.Node, ptr %2, i32 0, i32 32
  %3 = load ptr, ptr %var, align 16
  %is_local = getelementptr inbounds %struct.Obj, ptr %3, i32 0, i32 4
  %4 = load i8, ptr %is_local, align 8
  %tobool = trunc i8 %4 to i1
  br i1 %tobool, label %if.then, label %if.end

if.then:                                          ; preds = %sw.bb
  %5 = load ptr, ptr %node.addr, align 8
  %tok = getelementptr inbounds %struct.Node, ptr %5, i32 0, i32 3
  %6 = load ptr, ptr %tok, align 8
  call void (ptr, ptr, ...) @error_tok(ptr noundef %6, ptr noundef @.str) #9
  unreachable

if.end:                                           ; preds = %sw.bb
  %7 = load ptr, ptr %node.addr, align 8
  %var1 = getelementptr inbounds %struct.Node, ptr %7, i32 0, i32 32
  %8 = load ptr, ptr %var1, align 16
  %name = getelementptr inbounds %struct.Obj, ptr %8, i32 0, i32 1
  %9 = load ptr, ptr %label.addr, align 8
  store ptr %name, ptr %9, align 8
  store i64 0, ptr %retval, align 8
  br label %return

sw.bb2:                                           ; preds = %entry
  %10 = load ptr, ptr %node.addr, align 8
  %lhs = getelementptr inbounds %struct.Node, ptr %10, i32 0, i32 4
  %11 = load ptr, ptr %lhs, align 16
  %12 = load ptr, ptr %label.addr, align 8
  %call = call i64 @eval2(ptr noundef %11, ptr noundef %12)
  store i64 %call, ptr %retval, align 8
  br label %return

sw.bb3:                                           ; preds = %entry
  %13 = load ptr, ptr %node.addr, align 8
  %lhs4 = getelementptr inbounds %struct.Node, ptr %13, i32 0, i32 4
  %14 = load ptr, ptr %lhs4, align 16
  %15 = load ptr, ptr %label.addr, align 8
  %call5 = call i64 @eval_rval(ptr noundef %14, ptr noundef %15)
  %16 = load ptr, ptr %node.addr, align 8
  %member = getelementptr inbounds %struct.Node, ptr %16, i32 0, i32 14
  %17 = load ptr, ptr %member, align 16
  %offset = getelementptr inbounds %struct.Member, ptr %17, i32 0, i32 6
  %18 = load i32, ptr %offset, align 8
  %conv = sext i32 %18 to i64
  %add = add nsw i64 %call5, %conv
  store i64 %add, ptr %retval, align 8
  br label %return

sw.epilog:                                        ; preds = %entry
  %19 = load ptr, ptr %node.addr, align 8
  %tok6 = getelementptr inbounds %struct.Node, ptr %19, i32 0, i32 3
  %20 = load ptr, ptr %tok6, align 8
  call void (ptr, ptr, ...) @error_tok(ptr noundef %20, ptr noundef @.str.1) #9
  unreachable

return:                                           ; preds = %sw.bb3, %sw.bb2, %if.end
  %21 = load i64, ptr %retval, align 8
  ret i64 %21
}