; Function Attrs: nounwind uwtable
define internal fastcc i64 @eval_rval(ptr nocapture noundef readonly %node, ptr noundef %label) unnamed_addr #0 {
entry:
  %0 = load i32, ptr %node, align 16
  switch i32 %0, label %sw.epilog [
    i32 40, label %sw.bb
    i32 21, label %sw.bb2
    i32 19, label %sw.bb3
  ]

sw.bb:                                            ; preds = %entry
  %var = getelementptr inbounds %struct.Node, ptr %node, i64 0, i32 32
  %1 = load ptr, ptr %var, align 16
  %is_local = getelementptr inbounds %struct.Obj, ptr %1, i64 0, i32 4
  %2 = load i8, ptr %is_local, align 8
  %3 = and i8 %2, 1
  %tobool.not = icmp eq i8 %3, 0
  br i1 %tobool.not, label %if.end, label %if.then

if.then:                                          ; preds = %sw.bb
  %tok = getelementptr inbounds %struct.Node, ptr %node, i64 0, i32 3
  %4 = load ptr, ptr %tok, align 8
  tail call void (ptr, ptr, ...) @error_tok(ptr noundef %4, ptr noundef nonnull @.str) #16
  unreachable

if.end:                                           ; preds = %sw.bb
  %name = getelementptr inbounds %struct.Obj, ptr %1, i64 0, i32 1
  store ptr %name, ptr %label, align 8
  br label %common.ret10

sw.bb2:                                           ; preds = %entry
  %lhs = getelementptr inbounds %struct.Node, ptr %node, i64 0, i32 4
  %5 = load ptr, ptr %lhs, align 16
  %call = tail call fastcc i64 @eval2(ptr noundef %5, ptr noundef %label)
  br label %common.ret10

common.ret10:                                     ; preds = %sw.bb2, %if.end, %sw.bb3
  %common.ret10.op = phi i64 [ %add, %sw.bb3 ], [ %call, %sw.bb2 ], [ 0, %if.end ]
  ret i64 %common.ret10.op

sw.bb3:                                           ; preds = %entry
  %lhs4 = getelementptr inbounds %struct.Node, ptr %node, i64 0, i32 4
  %6 = load ptr, ptr %lhs4, align 16
  %call5 = tail call fastcc i64 @eval_rval(ptr noundef %6, ptr noundef %label)
  %member = getelementptr inbounds %struct.Node, ptr %node, i64 0, i32 14
  %7 = load ptr, ptr %member, align 16
  %offset = getelementptr inbounds %struct.Member, ptr %7, i64 0, i32 6
  %8 = load i32, ptr %offset, align 8
  %conv = sext i32 %8 to i64
  %add = add nsw i64 %call5, %conv
  br label %common.ret10

sw.epilog:                                        ; preds = %entry
  %tok6 = getelementptr inbounds %struct.Node, ptr %node, i64 0, i32 3
  %9 = load ptr, ptr %tok6, align 8
  tail call void (ptr, ptr, ...) @error_tok(ptr noundef %9, ptr noundef nonnull @.str.1) #16
  unreachable
}